; Function Attrs: mustprogress uwtable
define dso_local nonnull ptr @_ZNK20cmConditionEvaluator19GetVariableOrStringERK25cmExpandedCommandArgument(ptr noundef nonnull align 8 dereferenceable(44) %0, ptr noundef nonnull align 8 dereferenceable(33) %1) local_unnamed_addr #3 align 2 {
  %3 = tail call ptr @_ZNK20cmConditionEvaluator23GetDefinitionIfUnquotedERK25cmExpandedCommandArgument(ptr noundef nonnull align 8 dereferenceable(44) %0, ptr noundef nonnull align 8 dereferenceable(33) %1)
  %.not = icmp eq ptr %3, null
  br i1 %.not, label %4, label %6

4:                                                ; preds = %2
  %5 = tail call noundef nonnull align 8 dereferenceable(32) ptr @_ZNK25cmExpandedCommandArgument8GetValueB5cxx11Ev(ptr noundef nonnull align 8 dereferenceable(33) %1)
  br label %6

6:                                                ; preds = %4, %2
  %.sroa.03.0 = phi ptr [ %3, %2 ], [ %5, %4 ]
  ret ptr %.sroa.03.0
}